target datalayout = "e-m:e-p270:32:32-p271:32:32-p272:64:64-i64:64-i128:128-f80:128-n8:16:32:64-S128"
target triple = "x86_64-pc-linux-gnu"

%struct.gmx_structurefactors = type { i32, ptr, ptr, ptr, ptr, ptr, ptr }

@.str.1 = private unnamed_addr constant [124 x i8] c"generated/home/dtcxzyw/WorkSpace/Projects/compilers/llvm-opt-benchmark/bench/gromacs/gromacs/src/gromacs/gmxana/sfactor.cpp\00", align 1
@.str.34 = private unnamed_addr constant [3 x i8] c"sf\00", align 1
@.str.57 = private unnamed_addr constant [9 x i8] c"sf->a[i]\00", align 1
@.str.58 = private unnamed_addr constant [9 x i8] c"sf->b[i]\00", align 1
@.str.59 = private unnamed_addr constant [14 x i8] c"sf->atomnm[i]\00", align 1
@.str.60 = private unnamed_addr constant [6 x i8] c"sf->a\00", align 1
@.str.61 = private unnamed_addr constant [6 x i8] c"sf->b\00", align 1
@.str.62 = private unnamed_addr constant [11 x i8] c"sf->atomnm\00", align 1
@.str.63 = private unnamed_addr constant [6 x i8] c"sf->p\00", align 1
@.str.64 = private unnamed_addr constant [6 x i8] c"sf->c\00", align 1

; Function Attrs: mustprogress uwtable
define internal void @_ZL14gmx_sfree_implI20gmx_structurefactorsEvPKcS2_iPT_(ptr noundef %0, ptr noundef %1, i32 noundef %2, ptr noundef %3) #0 {
  %5 = alloca ptr, align 8
  %6 = alloca ptr, align 8
  %7 = alloca i32, align 4
  %8 = alloca ptr, align 8
  store ptr %0, ptr %5, align 8
  store ptr %1, ptr %6, align 8
  store i32 %2, ptr %7, align 4
  store ptr %3, ptr %8, align 8
  %9 = load ptr, ptr %5, align 8
  %10 = load ptr, ptr %6, align 8
  %11 = load i32, ptr %7, align 4
  %12 = load ptr, ptr %8, align 8
  call void @_Z9save_freePKcS0_iPv(ptr noundef %9, ptr noundef %10, i32 noundef %11, ptr noundef %12)
  ret void
}

; Function Attrs: mustprogress uwtable
define internal void @_ZL14gmx_sfree_implIiEvPKcS1_iPT_(ptr noundef %0, ptr noundef %1, i32 noundef %2, ptr noundef %3) #0 {
  %5 = alloca ptr, align 8
  %6 = alloca ptr, align 8
  %7 = alloca i32, align 4
  %8 = alloca ptr, align 8
  store ptr %0, ptr %5, align 8
  store ptr %1, ptr %6, align 8
  store i32 %2, ptr %7, align 4
  store ptr %3, ptr %8, align 8
  %9 = load ptr, ptr %5, align 8
  %10 = load ptr, ptr %6, align 8
  %11 = load i32, ptr %7, align 4
  %12 = load ptr, ptr %8, align 8
  call void @_Z9save_freePKcS0_iPv(ptr noundef %9, ptr noundef %10, i32 noundef %11, ptr noundef %12)
  ret void
}

; Function Attrs: mustprogress uwtable
define internal void @_ZL14gmx_sfree_implIPcEvPKcS2_iPT_(ptr noundef %0, ptr noundef %1, i32 noundef %2, ptr noundef %3) #0 {
  %5 = alloca ptr, align 8
  %6 = alloca ptr, align 8
  %7 = alloca i32, align 4
  %8 = alloca ptr, align 8
  store ptr %0, ptr %5, align 8
  store ptr %1, ptr %6, align 8
  store i32 %2, ptr %7, align 4
  store ptr %3, ptr %8, align 8
  %9 = load ptr, ptr %5, align 8
  %10 = load ptr, ptr %6, align 8
  %11 = load i32, ptr %7, align 4
  %12 = load ptr, ptr %8, align 8
  call void @_Z9save_freePKcS0_iPv(ptr noundef %9, ptr noundef %10, i32 noundef %11, ptr noundef %12)
  ret void
}

; Function Attrs: mustprogress uwtable
define internal void @_ZL14gmx_sfree_implIPfEvPKcS2_iPT_(ptr noundef %0, ptr noundef %1, i32 noundef %2, ptr noundef %3) #0 {
  %5 = alloca ptr, align 8
  %6 = alloca ptr, align 8
  %7 = alloca i32, align 4
  %8 = alloca ptr, align 8
  store ptr %0, ptr %5, align 8
  store ptr %1, ptr %6, align 8
  store i32 %2, ptr %7, align 4
  store ptr %3, ptr %8, align 8
  %9 = load ptr, ptr %5, align 8
  %10 = load ptr, ptr %6, align 8
  %11 = load i32, ptr %7, align 4
  %12 = load ptr, ptr %8, align 8
  call void @_Z9save_freePKcS0_iPv(ptr noundef %9, ptr noundef %10, i32 noundef %11, ptr noundef %12)
  ret void
}

; Function Attrs: mustprogress uwtable
define internal void @_ZL14gmx_sfree_implIcEvPKcS1_iPT_(ptr noundef %0, ptr noundef %1, i32 noundef %2, ptr noundef %3) #0 {
  %5 = alloca ptr, align 8
  %6 = alloca ptr, align 8
  %7 = alloca i32, align 4
  %8 = alloca ptr, align 8
  store ptr %0, ptr %5, align 8
  store ptr %1, ptr %6, align 8
  store i32 %2, ptr %7, align 4
  store ptr %3, ptr %8, align 8
  %9 = load ptr, ptr %5, align 8
  %10 = load ptr, ptr %6, align 8
  %11 = load i32, ptr %7, align 4
  %12 = load ptr, ptr %8, align 8
  call void @_Z9save_freePKcS0_iPv(ptr noundef %9, ptr noundef %10, i32 noundef %11, ptr noundef %12)
  ret void
}

; Function Attrs: mustprogress uwtable
define internal void @_ZL14gmx_sfree_implIfEvPKcS1_iPT_(ptr noundef %0, ptr noundef %1, i32 noundef %2, ptr noundef %3) #0 {
  %5 = alloca ptr, align 8
  %6 = alloca ptr, align 8
  %7 = alloca i32, align 4
  %8 = alloca ptr, align 8
  store ptr %0, ptr %5, align 8
  store ptr %1, ptr %6, align 8
  store i32 %2, ptr %7, align 4
  store ptr %3, ptr %8, align 8
  %9 = load ptr, ptr %5, align 8
  %10 = load ptr, ptr %6, align 8
  %11 = load i32, ptr %7, align 4
  %12 = load ptr, ptr %8, align 8
  call void @_Z9save_freePKcS0_iPv(ptr noundef %9, ptr noundef %10, i32 noundef %11, ptr noundef %12)
  ret void
}

; Function Attrs: mustprogress uwtable
define void @_Z25gmx_structurefactors_doneP20gmx_structurefactors(ptr noundef %0) #0 {
  %2 = alloca ptr, align 8
  %3 = alloca i32, align 4
  %4 = alloca ptr, align 8
  store ptr %0, ptr %2, align 8
  %5 = load ptr, ptr %2, align 8
  store ptr %5, ptr %4, align 8
  store i32 0, ptr %3, align 4
  br label %6

6:                                                ; preds = %34, %1
  %7 = load i32, ptr %3, align 4
  %8 = load ptr, ptr %4, align 8
  %9 = getelementptr inbounds %struct.gmx_structurefactors, ptr %8, i32 0, i32 0
  %10 = load i32, ptr %9, align 8
  %11 = icmp slt i32 %7, %10
  br i1 %11, label %12, label %37

12:                                               ; preds = %6
  %13 = load ptr, ptr %4, align 8
  %14 = getelementptr inbounds %struct.gmx_structurefactors, ptr %13, i32 0, i32 3
  %15 = load ptr, ptr %14, align 8
  %16 = load i32, ptr %3, align 4
  %17 = sext i32 %16 to i64
  %18 = getelementptr inbounds ptr, ptr %15, i64 %17
  %19 = load ptr, ptr %18, align 8
  call void @_ZL14gmx_sfree_implIfEvPKcS1_iPT_(ptr noundef @.str.57, ptr noundef @.str.1, i32 noundef 699, ptr noundef %19)
  %20 = load ptr, ptr %4, align 8
  %21 = getelementptr inbounds %struct.gmx_structurefactors, ptr %20, i32 0, i32 4
  %22 = load ptr, ptr %21, align 8
  %23 = load i32, ptr %3, align 4
  %24 = sext i32 %23 to i64
  %25 = getelementptr inbounds ptr, ptr %22, i64 %24
  %26 = load ptr, ptr %25, align 8
  call void @_ZL14gmx_sfree_implIfEvPKcS1_iPT_(ptr noundef @.str.58, ptr noundef @.str.1, i32 noundef 700, ptr noundef %26)
  %27 = load ptr, ptr %4, align 8
  %28 = getelementptr inbounds %struct.gmx_structurefactors, ptr %27, i32 0, i32 6
  %29 = load ptr, ptr %28, align 8
  %30 = load i32, ptr %3, align 4
  %31 = sext i32 %30 to i64
  %32 = getelementptr inbounds ptr, ptr %29, i64 %31
  %33 = load ptr, ptr %32, align 8
  call void @_ZL14gmx_sfree_implIcEvPKcS1_iPT_(ptr noundef @.str.59, ptr noundef @.str.1, i32 noundef 701, ptr noundef %33)
  br label %34

34:                                               ; preds = %12
  %35 = load i32, ptr %3, align 4
  %36 = add nsw i32 %35, 1
  store i32 %36, ptr %3, align 4
  br label %6, !llvm.loop !33

37:                                               ; preds = %6
  %38 = load ptr, ptr %4, align 8
  %39 = getelementptr inbounds %struct.gmx_structurefactors, ptr %38, i32 0, i32 3
  %40 = load ptr, ptr %39, align 8
  call void @_ZL14gmx_sfree_implIPfEvPKcS2_iPT_(ptr noundef @.str.60, ptr noundef @.str.1, i32 noundef 704, ptr noundef %40)
  %41 = load ptr, ptr %4, align 8
  %42 = getelementptr inbounds %struct.gmx_structurefactors, ptr %41, i32 0, i32 4
  %43 = load ptr, ptr %42, align 8
  call void @_ZL14gmx_sfree_implIPfEvPKcS2_iPT_(ptr noundef @.str.61, ptr noundef @.str.1, i32 noundef 705, ptr noundef %43)
  %44 = load ptr, ptr %4, align 8
  %45 = getelementptr inbounds %struct.gmx_structurefactors, ptr %44, i32 0, i32 6
  %46 = load ptr, ptr %45, align 8
  call void @_ZL14gmx_sfree_implIPcEvPKcS2_iPT_(ptr noundef @.str.62, ptr noundef @.str.1, i32 noundef 706, ptr noundef %46)
  %47 = load ptr, ptr %4, align 8
  %48 = getelementptr inbounds %struct.gmx_structurefactors, ptr %47, i32 0, i32 1
  %49 = load ptr, ptr %48, align 8
  call void @_ZL14gmx_sfree_implIiEvPKcS1_iPT_(ptr noundef @.str.63, ptr noundef @.str.1, i32 noundef 707, ptr noundef %49)
  %50 = load ptr, ptr %4, align 8
  %51 = getelementptr inbounds %struct.gmx_structurefactors, ptr %50, i32 0, i32 5
  %52 = load ptr, ptr %51, align 8
  call void @_ZL14gmx_sfree_implIfEvPKcS1_iPT_(ptr noundef @.str.64, ptr noundef @.str.1, i32 noundef 708, ptr noundef %52)
  %53 = load ptr, ptr %4, align 8
  call void @_ZL14gmx_sfree_implI20gmx_structurefactorsEvPKcS2_iPT_(ptr noundef @.str.34, ptr noundef @.str.1, i32 noundef 710, ptr noundef %53)
  ret void
}