; Function Attrs: mustprogress uwtable
define void @_Z25gmx_structurefactors_doneP20gmx_structurefactors(ptr noundef %0) local_unnamed_addr #0 {
  %2 = load i32, ptr %0, align 8
  %3 = icmp sgt i32 %2, 0
  br i1 %3, label %.lr.ph, label %._crit_edge

.lr.ph:                                           ; preds = %1
  %4 = getelementptr inbounds i8, ptr %0, i64 24
  %5 = getelementptr inbounds i8, ptr %0, i64 32
  %6 = getelementptr inbounds i8, ptr %0, i64 48
  br label %7

7:                                                ; preds = %.lr.ph, %7
  %indvars.iv = phi i64 [ 0, %.lr.ph ], [ %indvars.iv.next, %7 ]
  %8 = load ptr, ptr %4, align 8
  %9 = getelementptr inbounds ptr, ptr %8, i64 %indvars.iv
  %10 = load ptr, ptr %9, align 8
  tail call void @_Z9save_freePKcS0_iPv(ptr noundef nonnull @.str.57, ptr noundef nonnull @.str.1, i32 noundef 699, ptr noundef %10)
  %11 = load ptr, ptr %5, align 8
  %12 = getelementptr inbounds ptr, ptr %11, i64 %indvars.iv
  %13 = load ptr, ptr %12, align 8
  tail call void @_Z9save_freePKcS0_iPv(ptr noundef nonnull @.str.58, ptr noundef nonnull @.str.1, i32 noundef 700, ptr noundef %13)
  %14 = load ptr, ptr %6, align 8
  %15 = getelementptr inbounds ptr, ptr %14, i64 %indvars.iv
  %16 = load ptr, ptr %15, align 8
  tail call void @_Z9save_freePKcS0_iPv(ptr noundef nonnull @.str.59, ptr noundef nonnull @.str.1, i32 noundef 701, ptr noundef %16)
  %indvars.iv.next = add nuw nsw i64 %indvars.iv, 1
  %17 = load i32, ptr %0, align 8
  %18 = sext i32 %17 to i64
  %19 = icmp slt i64 %indvars.iv.next, %18
  br i1 %19, label %7, label %._crit_edge, !llvm.loop !34

._crit_edge:                                      ; preds = %7, %1
  %20 = getelementptr inbounds i8, ptr %0, i64 24
  %21 = load ptr, ptr %20, align 8
  tail call void @_Z9save_freePKcS0_iPv(ptr noundef nonnull @.str.60, ptr noundef nonnull @.str.1, i32 noundef 704, ptr noundef %21)
  %22 = getelementptr inbounds i8, ptr %0, i64 32
  %23 = load ptr, ptr %22, align 8
  tail call void @_Z9save_freePKcS0_iPv(ptr noundef nonnull @.str.61, ptr noundef nonnull @.str.1, i32 noundef 705, ptr noundef %23)
  %24 = getelementptr inbounds i8, ptr %0, i64 48
  %25 = load ptr, ptr %24, align 8
  tail call void @_Z9save_freePKcS0_iPv(ptr noundef nonnull @.str.62, ptr noundef nonnull @.str.1, i32 noundef 706, ptr noundef %25)
  %26 = getelementptr inbounds i8, ptr %0, i64 8
  %27 = load ptr, ptr %26, align 8
  tail call void @_Z9save_freePKcS0_iPv(ptr noundef nonnull @.str.63, ptr noundef nonnull @.str.1, i32 noundef 707, ptr noundef %27)
  %28 = getelementptr inbounds i8, ptr %0, i64 40
  %29 = load ptr, ptr %28, align 8
  tail call void @_Z9save_freePKcS0_iPv(ptr noundef nonnull @.str.64, ptr noundef nonnull @.str.1, i32 noundef 708, ptr noundef %29)
  tail call void @_Z9save_freePKcS0_iPv(ptr noundef nonnull @.str.34, ptr noundef nonnull @.str.1, i32 noundef 710, ptr noundef nonnull %0)
  ret void
}